target datalayout = "e-m:e-p270:32:32-p271:32:32-p272:64:64-i64:64-i128:128-f80:128-n8:16:32:64-S128"
target triple = "x86_64-pc-linux-gnu"

; Function Attrs: nounwind uwtable
define internal i32 @luaB_error(ptr noundef %0) #0 {
  %2 = alloca ptr, align 8
  %3 = alloca i32, align 4
  store ptr %0, ptr %2, align 8, !tbaa !4
  call void @llvm.lifetime.start.p0(i64 4, ptr %3) #5
  %4 = load ptr, ptr %2, align 8, !tbaa !4
  %5 = call i64 @luaL_optinteger(ptr noundef %4, i32 noundef 2, i64 noundef 1)
  %6 = trunc i64 %5 to i32
  store i32 %6, ptr %3, align 4, !tbaa !12
  %7 = load ptr, ptr %2, align 8, !tbaa !4
  call void @lua_settop(ptr noundef %7, i32 noundef 1)
  %8 = load ptr, ptr %2, align 8, !tbaa !4
  %9 = call i32 @lua_isstring(ptr noundef %8, i32 noundef 1)
  %10 = icmp ne i32 %9, 0
  br i1 %10, label %11, label %19

11:                                               ; preds = %1
  %12 = load i32, ptr %3, align 4, !tbaa !12
  %13 = icmp sgt i32 %12, 0
  br i1 %13, label %14, label %19

14:                                               ; preds = %11
  %15 = load ptr, ptr %2, align 8, !tbaa !4
  %16 = load i32, ptr %3, align 4, !tbaa !12
  call void @luaL_where(ptr noundef %15, i32 noundef %16)
  %17 = load ptr, ptr %2, align 8, !tbaa !4
  call void @lua_pushvalue(ptr noundef %17, i32 noundef 1)
  %18 = load ptr, ptr %2, align 8, !tbaa !4
  call void @lua_concat(ptr noundef %18, i32 noundef 2)
  br label %19

19:                                               ; preds = %14, %11, %1
  %20 = load ptr, ptr %2, align 8, !tbaa !4
  %21 = call i32 @lua_error(ptr noundef %20)
  call void @llvm.lifetime.end.p0(i64 4, ptr %3) #5
  ret i32 %21
}