; Function Attrs: nounwind uwtable
define internal i32 @luaB_error(ptr noundef %0) #0 {
  %2 = tail call i64 @luaL_optinteger(ptr noundef %0, i32 noundef 2, i64 noundef 1) #8
  %3 = trunc i64 %2 to i32
  tail call void @lua_settop(ptr noundef %0, i32 noundef 1) #8
  %4 = tail call i32 @lua_isstring(ptr noundef %0, i32 noundef 1) #8
  %5 = icmp ne i32 %4, 0
  %6 = icmp sgt i32 %3, 0
  %or.cond = select i1 %5, i1 %6, i1 false
  br i1 %or.cond, label %7, label %8

7:                                                ; preds = %1
  tail call void @luaL_where(ptr noundef %0, i32 noundef %3) #8
  tail call void @lua_pushvalue(ptr noundef %0, i32 noundef 1) #8
  tail call void @lua_concat(ptr noundef %0, i32 noundef 2) #8
  br label %8

8:                                                ; preds = %7, %1
  %9 = tail call i32 @lua_error(ptr noundef %0) #8
  ret i32 %9
}